target datalayout = "e-m:e-p270:32:32-p271:32:32-p272:64:64-i64:64-i128:128-f80:128-n8:16:32:64-S128"
target triple = "x86_64-pc-linux-gnu"

%"class.icu_77::UVector32" = type { %"class.icu_77::UObject", i32, i32, i32, ptr }
%"class.icu_77::UObject" = type { ptr }
%"class.icu_77::RuleBasedBreakIterator::BreakCache" = type { ptr, ptr, i32, i32, i32, i32, [128 x i32], [128 x i16], %"class.icu_77::UVector32" }

; Function Attrs: inlinehint mustprogress nounwind uwtable
define linkonce_odr noundef i32 @_ZN6icu_7722RuleBasedBreakIterator10BreakCache12modChunkSizeEi(i32 noundef %0) #5 comdat align 2 {
  %2 = alloca i32, align 4
  store i32 %0, ptr %2, align 4, !tbaa !22
  %3 = load i32, ptr %2, align 4, !tbaa !22
  %4 = and i32 %3, 127
  ret i32 %4
}

; Function Attrs: mustprogress uwtable
define noundef zeroext i1 @_ZN6icu_7722RuleBasedBreakIterator10BreakCache12addPrecedingEiiNS1_20UpdatePositionValuesE(ptr noundef nonnull align 8 dereferenceable(832) %0, i32 noundef %1, i32 noundef %2, i32 noundef %3) #0 align 2 {
  %5 = alloca i1, align 1
  %6 = alloca ptr, align 8
  %7 = alloca i32, align 4
  %8 = alloca i32, align 4
  %9 = alloca i32, align 4
  %10 = alloca i32, align 4
  %11 = alloca i32, align 4
  store ptr %0, ptr %6, align 8, !tbaa !81
  store i32 %1, ptr %7, align 4, !tbaa !22
  store i32 %2, ptr %8, align 4, !tbaa !22
  store i32 %3, ptr %9, align 4, !tbaa !107
  %12 = load ptr, ptr %6, align 8
  call void @llvm.lifetime.start.p0(i64 4, ptr %10) #8
  %13 = getelementptr inbounds nuw %"class.icu_77::RuleBasedBreakIterator::BreakCache", ptr %12, i32 0, i32 2
  %14 = load i32, ptr %13, align 8, !tbaa !84
  %15 = sub nsw i32 %14, 1
  %16 = call noundef i32 @_ZN6icu_7722RuleBasedBreakIterator10BreakCache12modChunkSizeEi(i32 noundef %15)
  store i32 %16, ptr %10, align 4, !tbaa !22
  %17 = load i32, ptr %10, align 4, !tbaa !22
  %18 = getelementptr inbounds nuw %"class.icu_77::RuleBasedBreakIterator::BreakCache", ptr %12, i32 0, i32 3
  %19 = load i32, ptr %18, align 4, !tbaa !85
  %20 = icmp eq i32 %17, %19
  br i1 %20, label %21, label %37

21:                                               ; preds = %4
  %22 = getelementptr inbounds nuw %"class.icu_77::RuleBasedBreakIterator::BreakCache", ptr %12, i32 0, i32 5
  %23 = load i32, ptr %22, align 4, !tbaa !87
  %24 = getelementptr inbounds nuw %"class.icu_77::RuleBasedBreakIterator::BreakCache", ptr %12, i32 0, i32 3
  %25 = load i32, ptr %24, align 4, !tbaa !85
  %26 = icmp eq i32 %23, %25
  br i1 %26, label %27, label %31

27:                                               ; preds = %21
  %28 = load i32, ptr %9, align 4, !tbaa !107
  %29 = icmp eq i32 %28, 0
  br i1 %29, label %30, label %31

30:                                               ; preds = %27
  store i1 false, ptr %5, align 1
  store i32 1, ptr %11, align 4
  br label %59

31:                                               ; preds = %27, %21
  %32 = getelementptr inbounds nuw %"class.icu_77::RuleBasedBreakIterator::BreakCache", ptr %12, i32 0, i32 3
  %33 = load i32, ptr %32, align 4, !tbaa !85
  %34 = sub nsw i32 %33, 1
  %35 = call noundef i32 @_ZN6icu_7722RuleBasedBreakIterator10BreakCache12modChunkSizeEi(i32 noundef %34)
  %36 = getelementptr inbounds nuw %"class.icu_77::RuleBasedBreakIterator::BreakCache", ptr %12, i32 0, i32 3
  store i32 %35, ptr %36, align 4, !tbaa !85
  br label %37

37:                                               ; preds = %31, %4
  %38 = load i32, ptr %7, align 4, !tbaa !22
  %39 = getelementptr inbounds nuw %"class.icu_77::RuleBasedBreakIterator::BreakCache", ptr %12, i32 0, i32 6
  %40 = load i32, ptr %10, align 4, !tbaa !22
  %41 = sext i32 %40 to i64
  %42 = getelementptr inbounds [128 x i32], ptr %39, i64 0, i64 %41
  store i32 %38, ptr %42, align 4, !tbaa !22
  %43 = load i32, ptr %8, align 4, !tbaa !22
  %44 = trunc i32 %43 to i16
  %45 = getelementptr inbounds nuw %"class.icu_77::RuleBasedBreakIterator::BreakCache", ptr %12, i32 0, i32 7
  %46 = load i32, ptr %10, align 4, !tbaa !22
  %47 = sext i32 %46 to i64
  %48 = getelementptr inbounds [128 x i16], ptr %45, i64 0, i64 %47
  store i16 %44, ptr %48, align 2, !tbaa !63
  %49 = load i32, ptr %10, align 4, !tbaa !22
  %50 = getelementptr inbounds nuw %"class.icu_77::RuleBasedBreakIterator::BreakCache", ptr %12, i32 0, i32 2
  store i32 %49, ptr %50, align 8, !tbaa !84
  %51 = load i32, ptr %9, align 4, !tbaa !107
  %52 = icmp eq i32 %51, 1
  br i1 %52, label %53, label %58

53:                                               ; preds = %37
  %54 = load i32, ptr %10, align 4, !tbaa !22
  %55 = getelementptr inbounds nuw %"class.icu_77::RuleBasedBreakIterator::BreakCache", ptr %12, i32 0, i32 5
  store i32 %54, ptr %55, align 4, !tbaa !87
  %56 = load i32, ptr %7, align 4, !tbaa !22
  %57 = getelementptr inbounds nuw %"class.icu_77::RuleBasedBreakIterator::BreakCache", ptr %12, i32 0, i32 4
  store i32 %56, ptr %57, align 8, !tbaa !86
  br label %58

58:                                               ; preds = %53, %37
  store i1 true, ptr %5, align 1
  store i32 1, ptr %11, align 4
  br label %59

59:                                               ; preds = %58, %30
  call void @llvm.lifetime.end.p0(i64 4, ptr %10) #8
  %60 = load i1, ptr %5, align 1
  ret i1 %60
}