; Function Attrs: mustprogress nofree norecurse nosync nounwind willreturn memory(argmem: readwrite) uwtable
define noundef zeroext i1 @_ZN6icu_7722RuleBasedBreakIterator10BreakCache12addPrecedingEiiNS1_20UpdatePositionValuesE(ptr noundef nonnull align 8 captures(none) dereferenceable(832) %0, i32 noundef %1, i32 noundef %2, i32 noundef %3) local_unnamed_addr #10 align 2 {
  %5 = getelementptr inbounds nuw i8, ptr %0, i64 16
  %6 = load i32, ptr %5, align 8, !tbaa !73
  %7 = add i32 %6, 127
  %8 = and i32 %7, 127
  %9 = getelementptr inbounds nuw i8, ptr %0, i64 20
  %10 = load i32, ptr %9, align 4, !tbaa !74
  %11 = icmp eq i32 %8, %10
  br i1 %11, label %12, label %20

12:                                               ; preds = %4
  %13 = getelementptr inbounds nuw i8, ptr %0, i64 28
  %14 = load i32, ptr %13, align 4, !tbaa !76
  %15 = icmp eq i32 %14, %8
  %16 = icmp eq i32 %3, 0
  %or.cond = and i1 %16, %15
  br i1 %or.cond, label %31, label %17

17:                                               ; preds = %12
  %18 = add i32 %6, 126
  %19 = and i32 %18, 127
  store i32 %19, ptr %9, align 4, !tbaa !74
  br label %20

20:                                               ; preds = %17, %4
  %21 = getelementptr inbounds nuw i8, ptr %0, i64 32
  %22 = zext nneg i32 %8 to i64
  %23 = getelementptr inbounds nuw [128 x i32], ptr %21, i64 0, i64 %22
  store i32 %1, ptr %23, align 4, !tbaa !17
  %24 = trunc i32 %2 to i16
  %25 = getelementptr inbounds nuw i8, ptr %0, i64 544
  %26 = getelementptr inbounds nuw [128 x i16], ptr %25, i64 0, i64 %22
  store i16 %24, ptr %26, align 2, !tbaa !71
  store i32 %8, ptr %5, align 8, !tbaa !73
  %27 = icmp eq i32 %3, 1
  br i1 %27, label %28, label %31

28:                                               ; preds = %20
  %29 = getelementptr inbounds nuw i8, ptr %0, i64 28
  store i32 %8, ptr %29, align 4, !tbaa !76
  %30 = getelementptr inbounds nuw i8, ptr %0, i64 24
  store i32 %1, ptr %30, align 8, !tbaa !75
  br label %31

31:                                               ; preds = %20, %28, %12
  %.0 = phi i1 [ false, %12 ], [ true, %28 ], [ true, %20 ]
  ret i1 %.0
}